; Function Attrs: nounwind uwtable
define ptr @updateAnteConseVectors(ptr noundef readonly captures(none) %0) local_unnamed_addr #5 {
  %2 = load ptr, ptr %0, align 8, !tbaa !3
  %3 = icmp eq ptr %2, null
  br i1 %3, label %7, label %4

4:                                                ; preds = %1
  %5 = getelementptr i8, ptr %2, i64 4
  %.val15 = load i32, ptr %5, align 4, !tbaa !42
  %6 = icmp slt i32 %.val15, 1
  br i1 %6, label %7, label %10

7:                                                ; preds = %4, %1
  %8 = getelementptr inbounds nuw i8, ptr %0, i64 8
  %9 = load ptr, ptr %8, align 8, !tbaa !13
  br label %.critedge

10:                                               ; preds = %4
  %calloc = tail call dereferenceable_or_null(16) ptr @calloc(i64 1, i64 16)
  %11 = getelementptr inbounds nuw i8, ptr %calloc, i64 4
  %12 = getelementptr inbounds nuw i8, ptr %calloc, i64 8
  %13 = getelementptr inbounds nuw i8, ptr %0, i64 8
  %14 = load ptr, ptr %13, align 8, !tbaa !13
  %15 = getelementptr i8, ptr %14, i64 4
  %.val18 = load i32, ptr %15, align 4, !tbaa !42
  %16 = icmp sgt i32 %.val18, 0
  br i1 %16, label %.lr.ph, label %.critedge

.lr.ph:                                           ; preds = %10, %Vec_IntFind.exit
  %17 = phi ptr [ %54, %Vec_IntFind.exit ], [ %14, %10 ]
  %18 = phi ptr [ %.pre.i22, %Vec_IntFind.exit ], [ null, %10 ]
  %indvars.iv = phi i64 [ %indvars.iv.next, %Vec_IntFind.exit ], [ 0, %10 ]
  %19 = getelementptr i8, ptr %17, i64 8
  %.val16 = load ptr, ptr %19, align 8, !tbaa !9
  %20 = getelementptr inbounds nuw i32, ptr %.val16, i64 %indvars.iv
  %21 = load i32, ptr %20, align 4, !tbaa !50
  %22 = load ptr, ptr %0, align 8, !tbaa !3
  %23 = getelementptr inbounds nuw i8, ptr %22, i64 4
  %24 = load i32, ptr %23, align 4, !tbaa !42
  %25 = icmp sgt i32 %24, 0
  br i1 %25, label %.lr.ph.i, label %Vec_IntFind.exit.thread

.lr.ph.i:                                         ; preds = %.lr.ph
  %26 = getelementptr inbounds nuw i8, ptr %22, i64 8
  %27 = load ptr, ptr %26, align 8, !tbaa !9
  %wide.trip.count.i = zext nneg i32 %24 to i64
  br label %28

28:                                               ; preds = %32, %.lr.ph.i
  %indvars.iv.i = phi i64 [ 0, %.lr.ph.i ], [ %indvars.iv.next.i, %32 ]
  %29 = getelementptr inbounds nuw i32, ptr %27, i64 %indvars.iv.i
  %30 = load i32, ptr %29, align 4, !tbaa !50
  %31 = icmp eq i32 %30, %21
  br i1 %31, label %Vec_IntFind.exit, label %32

32:                                               ; preds = %28
  %indvars.iv.next.i = add nuw nsw i64 %indvars.iv.i, 1
  %exitcond.not.i = icmp eq i64 %indvars.iv.next.i, %wide.trip.count.i
  br i1 %exitcond.not.i, label %Vec_IntFind.exit.thread, label %28, !llvm.loop !67

Vec_IntFind.exit.thread:                          ; preds = %32, %.lr.ph
  %33 = load i32, ptr %11, align 4, !tbaa !42
  %34 = load i32, ptr %calloc, align 8, !tbaa !64
  %35 = icmp eq i32 %33, %34
  br i1 %35, label %36, label %Vec_IntPush.exit

36:                                               ; preds = %Vec_IntFind.exit.thread
  %37 = icmp slt i32 %33, 16
  br i1 %37, label %38, label %43

38:                                               ; preds = %36
  %.not9.i.i = icmp eq ptr %18, null
  br i1 %.not9.i.i, label %41, label %39

39:                                               ; preds = %38
  %40 = tail call dereferenceable_or_null(64) ptr @realloc(ptr noundef nonnull %18, i64 noundef 64) #17
  br label %Vec_IntPush.exit.sink.split

41:                                               ; preds = %38
  %42 = tail call noalias dereferenceable_or_null(64) ptr @malloc(i64 noundef 64) #16
  br label %Vec_IntPush.exit.sink.split

43:                                               ; preds = %36
  %44 = shl nuw nsw i32 %33, 1
  %.not9.i9.i = icmp eq ptr %18, null
  %45 = zext nneg i32 %44 to i64
  %46 = shl nuw nsw i64 %45, 2
  br i1 %.not9.i9.i, label %49, label %47

47:                                               ; preds = %43
  %48 = tail call ptr @realloc(ptr noundef nonnull %18, i64 noundef %46) #17
  br label %Vec_IntPush.exit.sink.split

49:                                               ; preds = %43
  %50 = tail call noalias ptr @malloc(i64 noundef %46) #16
  br label %Vec_IntPush.exit.sink.split

Vec_IntPush.exit.sink.split:                      ; preds = %47, %49, %39, %41
  %.sink24 = phi ptr [ %40, %39 ], [ %42, %41 ], [ %48, %47 ], [ %50, %49 ]
  %.sink = phi i32 [ 16, %39 ], [ 16, %41 ], [ %44, %47 ], [ %44, %49 ]
  store ptr %.sink24, ptr %12, align 8, !tbaa !9
  store i32 %.sink, ptr %calloc, align 8, !tbaa !64
  br label %Vec_IntPush.exit

Vec_IntPush.exit:                                 ; preds = %Vec_IntPush.exit.sink.split, %Vec_IntFind.exit.thread
  %.pre.i23 = phi ptr [ %18, %Vec_IntFind.exit.thread ], [ %.sink24, %Vec_IntPush.exit.sink.split ]
  %51 = add nsw i32 %33, 1
  store i32 %51, ptr %11, align 4, !tbaa !42
  %52 = sext i32 %33 to i64
  %53 = getelementptr inbounds i32, ptr %.pre.i23, i64 %52
  store i32 %21, ptr %53, align 4, !tbaa !50
  %.pre = load ptr, ptr %13, align 8, !tbaa !13
  br label %Vec_IntFind.exit

Vec_IntFind.exit:                                 ; preds = %28, %Vec_IntPush.exit
  %54 = phi ptr [ %.pre, %Vec_IntPush.exit ], [ %17, %28 ]
  %.pre.i22 = phi ptr [ %.pre.i23, %Vec_IntPush.exit ], [ %18, %28 ]
  %indvars.iv.next = add nuw nsw i64 %indvars.iv, 1
  %55 = getelementptr i8, ptr %54, i64 4
  %.val = load i32, ptr %55, align 4, !tbaa !42
  %56 = sext i32 %.val to i64
  %57 = icmp slt i64 %indvars.iv.next, %56
  br i1 %57, label %.lr.ph, label %.critedge, !llvm.loop !68

.critedge:                                        ; preds = %Vec_IntFind.exit, %10, %7
  %.013 = phi ptr [ %9, %7 ], [ %calloc, %10 ], [ %calloc, %Vec_IntFind.exit ]
  ret ptr %.013
}